; Function Attrs: mustprogress uwtable
define noundef zeroext i1 @_ZN18ColoringRulesModel12exportColorsE7QStringRS0_(ptr nocapture noundef nonnull readonly align 8 dereferenceable(88) %0, ptr noundef %1, ptr nocapture noundef nonnull align 8 dereferenceable(24) %2) local_unnamed_addr #4 align 2 personality ptr @__gxx_personality_v0 {
  %4 = alloca ptr, align 8
  %5 = alloca ptr, align 8
  %6 = alloca %class.QByteArray, align 8
  %7 = alloca %class.QString, align 16
  %8 = tail call noundef ptr @_ZN18ColoringRulesModel21createColorFilterListEv(ptr noundef nonnull align 8 dereferenceable(88) %0)
  store ptr %8, ptr %4, align 8
  store ptr null, ptr %5, align 8
  call void @_ZN7QString13toUtf8_helperERKS_(ptr dead_on_unwind nonnull writable sret(%class.QByteArray) align 8 %6, ptr noundef nonnull align 8 dereferenceable(24) %1)
  %9 = getelementptr inbounds i8, ptr %6, i64 8
  %10 = load ptr, ptr %9, align 8
  %.not.i.i = icmp eq ptr %10, null
  %spec.select.i.i = select i1 %.not.i.i, ptr @_ZN10QByteArray6_emptyE, ptr %10
  %11 = invoke i32 @color_filters_export(ptr noundef nonnull %spec.select.i.i, ptr noundef %8, i32 noundef 0, ptr noundef nonnull %5)
          to label %12 unwind label %31

12:                                               ; preds = %3
  %.not = icmp ne i32 %11, 0
  %13 = load ptr, ptr %6, align 8
  %.not.i.i.i = icmp eq ptr %13, null
  br i1 %.not.i.i.i, label %_ZN10QByteArrayD2Ev.exit, label %_ZN17QArrayDataPointerIcE5derefEv.exit.i.i

_ZN17QArrayDataPointerIcE5derefEv.exit.i.i:       ; preds = %12
  %14 = atomicrmw sub ptr %13, i32 1 seq_cst, align 4
  %.not.i.i4 = icmp eq i32 %14, 1
  br i1 %.not.i.i4, label %15, label %_ZN10QByteArrayD2Ev.exit

15:                                               ; preds = %_ZN17QArrayDataPointerIcE5derefEv.exit.i.i
  %16 = load ptr, ptr %6, align 8
  call void @_ZN10QArrayData10deallocateEPS_xx(ptr noundef %16, i64 noundef 1, i64 noundef 8) #18
  br label %_ZN10QByteArrayD2Ev.exit

_ZN10QByteArrayD2Ev.exit:                         ; preds = %12, %_ZN17QArrayDataPointerIcE5derefEv.exit.i.i, %15
  br i1 %.not, label %_ZN7QStringD2Ev.exit, label %17

17:                                               ; preds = %_ZN10QByteArrayD2Ev.exit
  %18 = load ptr, ptr %5, align 8
  call void @_Z21gchar_free_to_qstringPc(ptr dead_on_unwind nonnull writable sret(%class.QString) align 8 %7, ptr noundef %18)
  %19 = load ptr, ptr %2, align 8
  %20 = getelementptr inbounds i8, ptr %2, i64 8
  %21 = getelementptr inbounds i8, ptr %7, i64 8
  %22 = load ptr, ptr %20, align 8
  %23 = load <2 x ptr>, ptr %7, align 16
  store ptr %19, ptr %7, align 16
  store <2 x ptr> %23, ptr %2, align 8
  store ptr %22, ptr %21, align 8
  %24 = getelementptr inbounds i8, ptr %2, i64 16
  %25 = getelementptr inbounds i8, ptr %7, i64 16
  %26 = load i64, ptr %24, align 8
  %27 = load i64, ptr %25, align 16
  store i64 %27, ptr %24, align 8
  store i64 %26, ptr %25, align 16
  %.not.i.i.i5 = icmp eq ptr %19, null
  br i1 %.not.i.i.i5, label %_ZN7QStringD2Ev.exit, label %_ZN17QArrayDataPointerIDsE5derefEv.exit.i.i

_ZN17QArrayDataPointerIDsE5derefEv.exit.i.i:      ; preds = %17
  %28 = atomicrmw sub ptr %19, i32 1 seq_cst, align 4
  %.not.i.i6 = icmp eq i32 %28, 1
  br i1 %.not.i.i6, label %29, label %_ZN7QStringD2Ev.exit

29:                                               ; preds = %_ZN17QArrayDataPointerIDsE5derefEv.exit.i.i
  %30 = load ptr, ptr %7, align 16
  call void @_ZN10QArrayData10deallocateEPS_xx(ptr noundef %30, i64 noundef 2, i64 noundef 8) #18
  br label %_ZN7QStringD2Ev.exit

31:                                               ; preds = %3
  %32 = landingpad { ptr, i32 }
          cleanup
  %33 = load ptr, ptr %6, align 8
  %.not.i.i.i7 = icmp eq ptr %33, null
  br i1 %.not.i.i.i7, label %_ZN10QByteArrayD2Ev.exit10, label %_ZN17QArrayDataPointerIcE5derefEv.exit.i.i8

_ZN17QArrayDataPointerIcE5derefEv.exit.i.i8:      ; preds = %31
  %34 = atomicrmw sub ptr %33, i32 1 seq_cst, align 4
  %.not.i.i9 = icmp eq i32 %34, 1
  br i1 %.not.i.i9, label %35, label %_ZN10QByteArrayD2Ev.exit10

35:                                               ; preds = %_ZN17QArrayDataPointerIcE5derefEv.exit.i.i8
  %36 = load ptr, ptr %6, align 8
  call void @_ZN10QArrayData10deallocateEPS_xx(ptr noundef %36, i64 noundef 1, i64 noundef 8) #18
  br label %_ZN10QByteArrayD2Ev.exit10

_ZN10QByteArrayD2Ev.exit10:                       ; preds = %31, %_ZN17QArrayDataPointerIcE5derefEv.exit.i.i8, %35
  resume { ptr, i32 } %32

_ZN7QStringD2Ev.exit:                             ; preds = %29, %_ZN17QArrayDataPointerIDsE5derefEv.exit.i.i, %17, %_ZN10QByteArrayD2Ev.exit
  call void @color_filter_list_delete(ptr noundef nonnull %4)
  ret i1 %.not
}